(dp1
I17
(dp2
S'becameSuitTime'
p3
F1464032936.484
sS'savedBy'
p4
NsS'track'
p5
S'l'
sS'numFloors'
p6
I5
sS'difficulty'
p7
I8
sS'state'
p8
S'suit'
p9
sS'block'
p10
I17
ssI23
(dp11
g3
F1464032939.563
sg4
Nsg5
S'l'
sg6
I5
sg7
I8
sg8
g9
sg10
I23
ss.