(dp1
I5
(dp2
S'becameSuitTime'
p3
F1464048360.3440001
sS'savedBy'
p4
NsS'track'
p5
S's'
sS'numFloors'
p6
I4
sS'difficulty'
p7
I5
sS'state'
p8
S'suit'
p9
sS'block'
p10
I5
ssI30
(dp11
g3
F1464048499.105
sg4
Nsg5
S's'
sg6
I4
sg7
I5
sg8
g9
sg10
I30
ssI21
(dp12
g3
F1464048452.1359999
sg4
Nsg5
S's'
sg6
I3
sg7
I4
sg8
g9
sg10
I21
ss.