(dp1
I1
(dp2
S'becameSuitTime'
p3
F1464037988.4790001
sS'savedBy'
p4
NsS'track'
p5
S'l'
sS'numFloors'
p6
I3
sS'difficulty'
p7
I2
sS'state'
p8
S'suit'
p9
sS'block'
p10
I1
ssI10
(dp11
g3
F1464038120.767
sg4
Nsg5
S'l'
sg6
I1
sg7
I2
sg8
g9
sg10
I10
ssI26
(dp12
g3
F1464038099.191
sg4
Nsg5
S's'
sg6
I1
sg7
I2
sg8
g9
sg10
I26
ssI18
(dp13
g3
F1464037880.9890001
sg4
Nsg5
S'm'
sg6
I3
sg7
I3
sg8
g9
sg10
I18
ss.