(dp1
I16
(dp2
S'becameSuitTime'
p3
F1464032795.8659999
sS'savedBy'
p4
NsS'track'
p5
S'm'
sS'numFloors'
p6
I2
sS'difficulty'
p7
I2
sS'state'
p8
S'suit'
p9
sS'block'
p10
I16
ssI10
(dp11
g3
F1464032942.655
sg4
Nsg5
S'm'
sg6
I1
sg7
I2
sg8
g9
sg10
I10
ssI36
(dp12
g3
F1464032874.6059999
sg4
Nsg5
S'm'
sg6
I4
sg7
I5
sg8
g9
sg10
I36
ss.