(dp1
I24
(dp2
S'becameSuitTime'
p3
F1464048405.3239999
sS'savedBy'
p4
NsS'track'
p5
S'l'
sS'numFloors'
p6
I2
sS'difficulty'
p7
I3
sS'state'
p8
S'suit'
p9
sS'block'
p10
I24
ssI28
(dp11
g3
F1464048383.427
sg4
Nsg5
S'c'
sg6
I1
sg7
I2
sg8
g9
sg10
I28
ssI27
(dp12
g3
F1464048503.1110001
sg4
Nsg5
S'c'
sg6
I1
sg7
I1
sg8
g9
sg10
I27
ssI20
(dp13
g3
F1464048382.888
sg4
Nsg5
S'c'
sg6
I2
sg7
I3
sg8
g9
sg10
I20
ssI6
(dp14
g3
F1464048428.2679999
sg4
Nsg5
S'c'
sg6
I1
sg7
I1
sg8
g9
sg10
I6
ss.