(dp1
I30
(dp2
S'becameSuitTime'
p3
F1464053550.2149999
sS'savedBy'
p4
NsS'track'
p5
S's'
sS'numFloors'
p6
I5
sS'difficulty'
p7
I6
sS'state'
p8
S'suit'
p9
sS'block'
p10
I30
ssI23
(dp11
g3
F1464053709.4419999
sg4
Nsg5
S'm'
sg6
I5
sg7
I6
sg8
g9
sg10
I23
ss.