(dp1
I18
(dp2
S'becameSuitTime'
p3
F1464053634.352
sS'savedBy'
p4
NsS'track'
p5
S'l'
sS'numFloors'
p6
I2
sS'difficulty'
p7
I3
sS'state'
p8
S'suit'
p9
sS'block'
p10
I18
ssI4
(dp11
g3
F1464053681.744
sg4
Nsg5
S'l'
sg6
I1
sg7
I2
sg8
g9
sg10
I4
ssI34
(dp12
g3
F1464053601.973
sg4
Nsg5
S'c'
sg6
I4
sg7
I4
sg8
g9
sg10
I34
ssI31
(dp13
g3
F1464053504.665
sg4
Nsg5
S'm'
sg6
I3
sg7
I2
sg8
g9
sg10
I31
ss.