(dp1
I10
(dp2
S'becameSuitTime'
p3
F1464032844.2290001
sS'savedBy'
p4
NsS'track'
p5
S'c'
sS'numFloors'
p6
I3
sS'difficulty'
p7
I4
sS'state'
p8
S'suit'
p9
sS'block'
p10
I10
ssI38
(dp11
g3
F1464032898.7780001
sg4
Nsg5
S's'
sg6
I2
sg7
I4
sg8
g9
sg10
I38
ssI6
(dp12
g3
F1464032812.207
sg4
Nsg5
S's'
sg6
I4
sg7
I4
sg8
g9
sg10
I6
ss.