(dp1
I25
(dp2
S'becameSuitTime'
p3
F1464038075.8859999
sS'savedBy'
p4
NsS'track'
p5
S'l'
sS'numFloors'
p6
I4
sS'difficulty'
p7
I7
sS'state'
p8
S'suit'
p9
sS'block'
p10
I25
ssI18
(dp11
g3
F1464038077.6760001
sg4
Nsg5
S'l'
sg6
I5
sg7
I8
sg8
g9
sg10
I18
ssI13
(dp12
g3
F1464037992.033
sg4
Nsg5
S'l'
sg6
I5
sg7
I6
sg8
g9
sg10
I13
ss.