(dp1
I24
(dp2
S'becameSuitTime'
p3
F1464038100.184
sS'savedBy'
p4
NsS'track'
p5
S'l'
sS'numFloors'
p6
I1
sS'difficulty'
p7
I2
sS'state'
p8
S'suit'
p9
sS'block'
p10
I24
ssI25
(dp11
g3
F1464038137.5710001
sg4
Nsg5
S'l'
sg6
I3
sg7
I3
sg8
g9
sg10
I25
ssI11
(dp12
g3
F1464038007.4779999
sg4
Nsg5
S'c'
sg6
I2
sg7
I3
sg8
g9
sg10
I11
ssI14
(dp13
g3
F1464038136.934
sg4
Nsg5
S'l'
sg6
I4
sg7
I4
sg8
g9
sg10
I14
ssI31
(dp14
g3
F1464038143.608
sg4
Nsg5
S's'
sg6
I4
sg7
I4
sg8
g9
sg10
I31
ss.