(dp1
I18
(dp2
S'becameSuitTime'
p3
F1464037918.756
sS'savedBy'
p4
NsS'track'
p5
S'm'
sS'numFloors'
p6
I1
sS'difficulty'
p7
I1
sS'state'
p8
S'suit'
p9
sS'block'
p10
I18
ssI5
(dp11
g3
F1464037912.279
sg4
Nsg5
S'm'
sg6
I3
sg7
I2
sg8
g9
sg10
I5
ssI7
(dp12
g3
F1464037895.059
sg4
Nsg5
S's'
sg6
I2
sg7
I2
sg8
g9
sg10
I7
ss.