(dp1
I48
(dp2
S'becameSuitTime'
p3
F1464048478.286
sS'savedBy'
p4
NsS'track'
p5
S'c'
sS'numFloors'
p6
I2
sS'difficulty'
p7
I3
sS'state'
p8
S'suit'
p9
sS'block'
p10
I48
ssI9
(dp11
g3
F1464048463.73
sg4
Nsg5
S'c'
sg6
I3
sg7
I3
sg8
g9
sg10
I9
ss.