(dp1
I56
(dp2
S'becameSuitTime'
p3
F1464053693.993
sS'savedBy'
p4
NsS'track'
p5
S'c'
sS'numFloors'
p6
I4
sS'difficulty'
p7
I5
sS'state'
p8
S'suit'
p9
sS'block'
p10
I56
ssI19
(dp11
g3
F1464053662.4879999
sg4
Nsg5
S'l'
sg6
I2
sg7
I3
sg8
g9
sg10
I19
ss.