(dp1
I17
(dp2
S'becameSuitTime'
p3
F1464053562.7839999
sS'savedBy'
p4
NsS'track'
p5
S'm'
sS'numFloors'
p6
I2
sS'difficulty'
p7
I4
sS'state'
p8
S'suit'
p9
sS'block'
p10
I17
ssI10
(dp11
g3
F1464053637.7750001
sg4
Nsg5
S'm'
sg6
I1
sg7
I2
sg8
g9
sg10
I10
ss.