(dp1
I27
(dp2
S'becameSuitTime'
p3
F1464053499.151
sS'savedBy'
p4
NsS'track'
p5
S's'
sS'numFloors'
p6
I5
sS'difficulty'
p7
I6
sS'state'
p8
S'suit'
p9
sS'block'
p10
I27
ssI26
(dp11
g3
F1464053665.8080001
sg4
Nsg5
S'l'
sg6
I5
sg7
I6
sg8
g9
sg10
I26
ssI11
(dp12
g3
F1464053642.6919999
sg4
Nsg5
S'l'
sg6
I4
sg7
I7
sg8
g9
sg10
I11
ssI13
(dp13
g3
F1464053524.8340001
sg4
Nsg5
S'l'
sg6
I3
sg7
I6
sg8
g9
sg10
I13
ssI30
(dp14
g3
F1464053689.145
sg4
Nsg5
S'l'
sg6
I5
sg7
I6
sg8
g9
sg10
I30
ss.