(dp1
I9
(dp2
S'becameSuitTime'
p3
F1464048375.145
sS'savedBy'
p4
NsS'track'
p5
S'm'
sS'numFloors'
p6
I4
sS'difficulty'
p7
I5
sS'state'
p8
S'suit'
p9
sS'block'
p10
I9
ssI12
(dp11
g3
F1464048368.836
sg4
Nsg5
S's'
sg6
I5
sg7
I6
sg8
g9
sg10
I12
ssI52
(dp12
g3
F1464048394.461
sg4
Nsg5
S'l'
sg6
I3
sg7
I5
sg8
g9
sg10
I52
ss.