(dp1
I44
(dp2
S'becameSuitTime'
p3
F1464037904.131
sS'savedBy'
p4
NsS'track'
p5
S's'
sS'numFloors'
p6
I5
sS'difficulty'
p7
I6
sS'state'
p8
S'suit'
p9
sS'block'
p10
I44
ssI36
(dp11
g3
F1464038000.872
sg4
Nsg5
S's'
sg6
I5
sg7
I7
sg8
g9
sg10
I36
ssI45
(dp12
g3
F1464038105.177
sg4
Nsg5
S'c'
sg6
I5
sg7
I7
sg8
g9
sg10
I45
ss.