(dp1
I24
(dp2
S'becameSuitTime'
p3
F1464053718.5309999
sS'savedBy'
p4
NsS'track'
p5
S'l'
sS'numFloors'
p6
I1
sS'difficulty'
p7
I2
sS'state'
p8
S'suit'
p9
sS'block'
p10
I24
ssI17
(dp11
g3
F1464053596.4809999
sg4
Nsg5
S'c'
sg6
I3
sg7
I2
sg8
g9
sg10
I17
ssI27
(dp12
g3
F1464053544.365
sg4
Nsg5
S'c'
sg6
I1
sg7
I1
sg8
g9
sg10
I27
ssI12
(dp13
g3
F1464053544.8610001
sg4
Nsg5
S'c'
sg6
I1
sg7
I2
sg8
g9
sg10
I12
ss.