(dp1
I8
(dp2
S'becameSuitTime'
p3
F1464038025.8399999
sS'savedBy'
p4
NsS'track'
p5
S'c'
sS'numFloors'
p6
I4
sS'difficulty'
p7
I5
sS'state'
p8
S'suit'
p9
sS'block'
p10
I8
ssI41
(dp11
g3
F1464037952.652
sg4
Nsg5
S'c'
sg6
I4
sg7
I4
sg8
g9
sg10
I41
ssI30
(dp12
g3
F1464038033.6760001
sg4
Nsg5
S'c'
sg6
I3
sg7
I4
sg8
g9
sg10
I30
ssI47
(dp13
g3
F1464037942.948
sg4
Nsg5
S'c'
sg6
I2
sg7
I4
sg8
g9
sg10
I47
ss.