(dp1
I8
(dp2
S'becameSuitTime'
p3
F1464032830.8570001
sS'savedBy'
p4
NsS'track'
p5
S'c'
sS'numFloors'
p6
I3
sS'difficulty'
p7
I5
sS'state'
p8
S'suit'
p9
sS'block'
p10
I8
ssI23
(dp11
g3
F1464032863.2780001
sg4
Nsg5
S's'
sg6
I4
sg7
I4
sg8
g9
sg10
I23
ss.