(dp1
I9
(dp2
S'becameSuitTime'
p3
F1464032857.6010001
sS'savedBy'
p4
NsS'track'
p5
S'c'
sS'numFloors'
p6
I3
sS'difficulty'
p7
I3
sS'state'
p8
S'suit'
p9
sS'block'
p10
I9
ssI28
(dp11
g3
F1464032900.447
sg4
Nsg5
S'c'
sg6
I1
sg7
I1
sg8
g9
sg10
I28
ss.