(dp1
I1
(dp2
S'becameSuitTime'
p3
F1463970646.052
sS'savedBy'
p4
NsS'track'
p5
S'l'
sS'numFloors'
p6
I1
sS'difficulty'
p7
I2
sS'state'
p8
S'suit'
p9
sS'block'
p10
I1
ssI50
(dp11
g3
F1463970412.908
sg4
Nsg5
S'l'
sg6
I4
sg7
I4
sg8
g9
sg10
I50
ssI67
(dp12
g3
F1463970335.05
sg4
Nsg5
S'c'
sg6
I3
sg7
I2
sg8
g9
sg10
I67
ssI54
(dp13
g3
F1463970600.154
sg4
Nsg5
S'c'
sg6
I3
sg7
I4
sg8
g9
sg10
I54
ss.