(dp1
I10
(dp2
S'becameSuitTime'
p3
F1464048392.882
sS'savedBy'
p4
NsS'track'
p5
S'l'
sS'numFloors'
p6
I4
sS'difficulty'
p7
I6
sS'state'
p8
S'suit'
p9
sS'block'
p10
I10
ssI14
(dp11
g3
F1464048490.0280001
sg4
Nsg5
S'c'
sg6
I5
sg7
I6
sg8
g9
sg10
I14
ssI6
(dp12
g3
F1464048371.47
sg4
Nsg5
S'l'
sg6
I5
sg7
I6
sg8
g9
sg10
I6
ss.