(dp1
I1
(dp2
S'becameSuitTime'
p3
F1464037939.635
sS'savedBy'
p4
NsS'track'
p5
S'm'
sS'numFloors'
p6
I3
sS'difficulty'
p7
I3
sS'state'
p8
S'suit'
p9
sS'block'
p10
I1
ssI11
(dp11
g3
F1464037891.8510001
sg4
Nsg5
S'm'
sg6
I1
sg7
I2
sg8
g9
sg10
I11
ssI21
(dp12
g3
F1464038049.1730001
sg4
Nsg5
S'm'
sg6
I2
sg7
I2
sg8
g9
sg10
I21
ssI14
(dp13
g3
F1464038131.1470001
sg4
Nsg5
S'm'
sg6
I2
sg7
I2
sg8
g9
sg10
I14
ss.