(dp1
I8
(dp2
S'becameSuitTime'
p3
F1463970775.7639999
sS'savedBy'
p4
NsS'track'
p5
S'c'
sS'numFloors'
p6
I3
sS'difficulty'
p7
I4
sS'state'
p8
S'suit'
p9
sS'block'
p10
I8
ssI50
(dp11
g3
F1463970727.592
sg4
Nsg5
S'c'
sg6
I4
sg7
I6
sg8
g9
sg10
I50
ssI44
(dp12
g3
F1463970421.1949999
sg4
Nsg5
S'c'
sg6
I5
sg7
I6
sg8
g9
sg10
I44
ssI5
(dp13
g3
F1463970672.4070001
sg4
Nsg5
S'c'
sg6
I2
sg7
I4
sg8
g9
sg10
I5
ssI15
(dp14
g3
F1463970351.2249999
sg4
Nsg5
S'c'
sg6
I4
sg7
I4
sg8
g9
sg10
I15
ss.