(dp1
I33
(dp2
S'becameSuitTime'
p3
F1464048422.527
sS'savedBy'
p4
NsS'track'
p5
S'm'
sS'numFloors'
p6
I3
sS'difficulty'
p7
I5
sS'state'
p8
S'suit'
p9
sS'block'
p10
I33
ssI34
(dp11
g3
F1464048386.9760001
sg4
Nsg5
S'm'
sg6
I2
sg7
I4
sg8
g9
sg10
I34
ssI27
(dp12
g3
F1464048486.7609999
sg4
Nsg5
S'm'
sg6
I2
sg7
I3
sg8
g9
sg10
I27
ss.