(dp1
I27
(dp2
S'becameSuitTime'
p3
F1464037856.8440001
sS'savedBy'
p4
NsS'track'
p5
S'c'
sS'numFloors'
p6
I1
sS'difficulty'
p7
I2
sS'state'
p8
S'suit'
p9
sS'block'
p10
I27
ssI45
(dp11
g3
F1464037986.0880001
sg4
Nsg5
S'l'
sg6
I1
sg7
I2
sg8
g9
sg10
I45
ss.