(dp1
I10
(dp2
S'becameSuitTime'
p3
F1464048373.263
sS'savedBy'
p4
NsS'track'
p5
S'c'
sS'numFloors'
p6
I4
sS'difficulty'
p7
I5
sS'state'
p8
S'suit'
p9
sS'block'
p10
I10
ssI15
(dp11
g3
F1464048513.5910001
sg4
Nsg5
S'l'
sg6
I1
sg7
I2
sg8
g9
sg10
I15
ss.