(dp1
I19
(dp2
S'becameSuitTime'
p3
F1464048385.74
sS'savedBy'
p4
NsS'track'
p5
S'm'
sS'numFloors'
p6
I3
sS'difficulty'
p7
I5
sS'state'
p8
S'suit'
p9
sS'block'
p10
I19
ssI7
(dp11
g3
F1464048434.0710001
sg4
Nsg5
S'm'
sg6
I2
sg7
I3
sg8
g9
sg10
I7
ss.