(dp1
I1
(dp2
S'becameSuitTime'
p3
F1464053667.7920001
sS'savedBy'
p4
NsS'track'
p5
S'l'
sS'numFloors'
p6
I4
sS'difficulty'
p7
I5
sS'state'
p8
S'suit'
p9
sS'block'
p10
I1
ssI2
(dp11
g3
F1464053596.5239999
sg4
Nsg5
S'l'
sg6
I4
sg7
I4
sg8
g9
sg10
I2
ssI12
(dp12
g3
F1464053562.267
sg4
Nsg5
S'l'
sg6
I2
sg7
I4
sg8
g9
sg10
I12
ssI25
(dp13
g3
F1464053662.6470001
sg4
Nsg5
S'l'
sg6
I3
sg7
I3
sg8
g9
sg10
I25
ss.