(dp1
I32
(dp2
S'becameSuitTime'
p3
F1464037928.881
sS'savedBy'
p4
NsS'track'
p5
S'm'
sS'numFloors'
p6
I3
sS'difficulty'
p7
I4
sS'state'
p8
S'suit'
p9
sS'block'
p10
I32
ssI3
(dp11
g3
F1464037987.1059999
sg4
Nsg5
S'm'
sg6
I2
sg7
I2
sg8
g9
sg10
I3
ssI20
(dp12
g3
F1464038048.865
sg4
Nsg5
S'm'
sg6
I4
sg7
I5
sg8
g9
sg10
I20
ssI37
(dp13
g3
F1464037922.0450001
sg4
Nsg5
S'm'
sg6
I2
sg7
I4
sg8
g9
sg10
I37
ss.