(dp1
I1
(dp2
S'becameSuitTime'
p3
F1464032870.75
sS'savedBy'
p4
NsS'track'
p5
S'l'
sS'numFloors'
p6
I3
sS'difficulty'
p7
I4
sS'state'
p8
S'suit'
p9
sS'block'
p10
I1
ssI19
(dp11
g3
F1464032816.0380001
sg4
Nsg5
S'l'
sg6
I4
sg7
I4
sg8
g9
sg10
I19
ss.