(dp1
I12
(dp2
S'becameSuitTime'
p3
F1464048368.2290001
sS'savedBy'
p4
NsS'track'
p5
S'l'
sS'numFloors'
p6
I4
sS'difficulty'
p7
I5
sS'state'
p8
S'suit'
p9
sS'block'
p10
I12
ssI5
(dp11
g3
F1464048442.4230001
sg4
Nsg5
S'l'
sg6
I4
sg7
I5
sg8
g9
sg10
I5
ssI13
(dp12
g3
F1464048366.615
sg4
Nsg5
S'l'
sg6
I3
sg7
I2
sg8
g9
sg10
I13
ss.