(dp1
I2
(dp2
S'becameSuitTime'
p3
F1464053699.8989999
sS'savedBy'
p4
NsS'track'
p5
S's'
sS'numFloors'
p6
I3
sS'difficulty'
p7
I5
sS'state'
p8
S'suit'
p9
sS'block'
p10
I2
ssI13
(dp11
g3
F1464053673.608
sg4
Nsg5
S'm'
sg6
I2
sg7
I2
sg8
g9
sg10
I13
ss.