(dp1
I4
(dp2
S'becameSuitTime'
p3
F1464032838.3829999
sS'savedBy'
p4
NsS'track'
p5
S'm'
sS'numFloors'
p6
I4
sS'difficulty'
p7
I4
sS'state'
p8
S'suit'
p9
sS'block'
p10
I4
ssI36
(dp11
g3
F1464032868.7620001
sg4
Nsg5
S's'
sg6
I2
sg7
I2
sg8
g9
sg10
I36
ss.