(dp1
I16
(dp2
S'becameSuitTime'
p3
F1464037932.0350001
sS'savedBy'
p4
NsS'track'
p5
S'm'
sS'numFloors'
p6
I5
sS'difficulty'
p7
I6
sS'state'
p8
S'suit'
p9
sS'block'
p10
I16
ssI25
(dp11
g3
F1464038080.494
sg4
Nsg5
S's'
sg6
I3
sg7
I5
sg8
g9
sg10
I25
ssI38
(dp12
g3
F1464038067.4849999
sg4
Nsg5
S's'
sg6
I3
sg7
I5
sg8
g9
sg10
I38
ssI7
(dp13
g3
F1464038070.4230001
sg4
Nsg5
S'l'
sg6
I4
sg7
I5
sg8
g9
sg10
I7
ss.