(dp1
I19
(dp2
S'becameSuitTime'
p3
F1464037830.994
sS'savedBy'
p4
NsS'track'
p5
S's'
sS'numFloors'
p6
I3
sS'difficulty'
p7
I2
sS'state'
p8
S'suit'
p9
sS'block'
p10
I19
ssI3
(dp11
g3
F1464037897.563
sg4
Nsg5
S's'
sg6
I2
sg7
I2
sg8
g9
sg10
I3
ssI4
(dp12
g3
F1464038064.006
sg4
Nsg5
S'l'
sg6
I1
sg7
I2
sg8
g9
sg10
I4
ssI13
(dp13
g3
F1464037967.0829999
sg4
Nsg5
S's'
sg6
I3
sg7
I3
sg8
g9
sg10
I13
ss.